Certificate:
    Data:
        Version: 3 (0x2)
        Serial Number: 1 (0x1)
    Signature Algorithm: sha256WithRSAEncryption
        Issuer: C=UA, ST=Galychyna, L=Lviv, O=Ntaxa, CN=Ntaxa CA/name=EasyRSA/emailAddress=ntaxa@ntaxa.com
        Validity
            Not Before: May 18 19:29:48 2017 GMT
            Not After : May 16 19:29:48 2027 GMT
        Subject: C=UA, ST=Galychyna, L=Lviv, O=Ntaxa, CN=server/name=EasyRSA/emailAddress=ntaxa@ntaxa.com
        Subject Public Key Info:
            Public Key Algorithm: rsaEncryption
                Public-Key: (2048 bit)
                Modulus:
                    00:c7:c3:10:55:25:9b:91:b9:79:71:60:c4:c6:bd:
                    ac:c8:da:17:b7:4d:44:b9:a2:8c:91:59:30:b1:46:
                    8e:47:be:ec:77:15:e1:62:76:fe:b1:f9:09:66:a1:
                    c2:ef:f7:d1:4e:21:39:07:1e:71:a8:5f:fc:7f:3d:
                    ce:55:6f:34:ba:21:8c:eb:a7:df:a1:90:de:ab:e8:
                    f3:65:0a:d2:88:85:38:91:01:68:49:8e:91:20:c7:
                    2d:d7:1b:88:94:57:fb:b2:93:7a:48:3c:63:d1:82:
                    36:b0:e5:34:08:f7:8d:99:56:6c:35:51:76:ab:3f:
                    fa:f4:03:b2:9d:9a:1b:79:d9:46:c4:a2:ff:5e:be:
                    e1:07:f1:fb:93:e8:1d:11:fb:fd:7a:c6:89:c1:3c:
                    55:b2:35:58:0a:06:e7:0a:4c:f0:99:b6:5d:86:51:
                    c1:78:87:69:58:bb:b2:77:5c:0c:9e:8d:db:79:af:
                    a5:10:32:8d:c4:af:4c:2c:af:bc:ee:2d:b5:59:74:
                    cf:d0:51:ed:65:86:94:69:dd:d0:8b:b0:6e:47:77:
                    79:ce:ba:76:cf:8c:b0:f2:77:eb:ff:16:41:3f:43:
                    8b:54:27:13:7b:7c:27:85:56:a2:a3:6d:da:8e:1b:
                    3a:ff:a5:5d:8f:2a:d7:49:4e:20:4c:12:e7:c9:51:
                    cd:43
                Exponent: 65537 (0x10001)
        X509v3 extensions:
            X509v3 Basic Constraints: 
                CA:FALSE
            Netscape Cert Type: 
                SSL Server
            Netscape Comment: 
                Easy-RSA Generated Server Certificate
            X509v3 Subject Key Identifier: 
                F4:C2:C0:7E:16:35:E3:3A:A4:51:0F:09:29:0C:13:33:06:2B:76:30
            X509v3 Authority Key Identifier: 
                keyid:AB:26:88:0D:13:1A:1A:EA:3F:D1:D5:A8:AE:10:2B:A8:67:F1:51:2C
                DirName:/C=UA/ST=Galychyna/L=Lviv/O=Ntaxa/CN=Ntaxa CA/name=EasyRSA/emailAddress=ntaxa@ntaxa.com
                serial:D2:87:4C:C3:E9:03:2D:09

            X509v3 Extended Key Usage: 
                TLS Web Server Authentication
            X509v3 Key Usage: 
                Digital Signature, Key Encipherment
            X509v3 Subject Alternative Name: 
                DNS:server
    Signature Algorithm: sha256WithRSAEncryption
         87:17:b0:33:72:aa:28:82:85:4a:0b:78:3d:ec:11:70:9d:72:
         09:55:93:87:22:66:82:78:a2:40:c6:dc:1f:77:83:b7:65:d2:
         26:be:b6:36:96:01:a3:57:95:25:13:df:da:4e:54:cf:e6:a3:
         60:e3:8d:96:d2:80:ae:63:e8:d7:d7:f4:88:91:bb:c4:85:f4:
         34:3e:73:19:a2:dd:72:41:f8:cf:9f:18:3f:67:7c:5c:60:2b:
         0b:0d:dc:d5:c6:26:6c:e3:90:49:3c:66:e7:6a:92:b5:ef:4b:
         cd:9b:3b:b0:c1:fe:bf:94:cd:76:35:6c:76:b5:c8:5a:55:37:
         bb:48:97:4c:a7:8f:2b:80:2e:fb:2c:d0:40:9e:f4:10:ee:eb:
         36:6a:65:66:da:62:0e:a0:ff:3d:9d:4d:48:dd:9c:26:76:29:
         70:88:6a:85:30:ce:ef:a0:1a:10:2b:1c:ff:33:63:fc:6a:19:
         24:be:68:49:85:69:ba:e4:b7:ff:aa:da:99:35:76:38:96:53:
         e8:27:57:88:27:9f:47:8f:f9:97:3b:f8:eb:e8:c4:4d:50:ef:
         8f:e8:d3:86:c3:5e:78:14:fe:00:5a:bf:6e:c3:ba:4c:ed:bf:
         8d:23:14:93:55:7a:66:27:0f:7b:e6:91:d0:4e:13:41:83:41:
         a5:d8:cf:bf
-----BEGIN CERTIFICATE-----
MIIE8DCCA9igAwIBAgIBATANBgkqhkiG9w0BAQsFADCBhTELMAkGA1UEBhMCVUEx
EjAQBgNVBAgTCUdhbHljaHluYTENMAsGA1UEBxMETHZpdjEOMAwGA1UEChMFTnRh
eGExETAPBgNVBAMTCE50YXhhIENBMRAwDgYDVQQpEwdFYXN5UlNBMR4wHAYJKoZI
hvcNAQkBFg9udGF4YUBudGF4YS5jb20wHhcNMTcwNTE4MTkyOTQ4WhcNMjcwNTE2
MTkyOTQ4WjCBgzELMAkGA1UEBhMCVUExEjAQBgNVBAgTCUdhbHljaHluYTENMAsG
A1UEBxMETHZpdjEOMAwGA1UEChMFTnRheGExDzANBgNVBAMTBnNlcnZlcjEQMA4G
A1UEKRMHRWFzeVJTQTEeMBwGCSqGSIb3DQEJARYPbnRheGFAbnRheGEuY29tMIIB
IjANBgkqhkiG9w0BAQEFAAOCAQ8AMIIBCgKCAQEAx8MQVSWbkbl5cWDExr2syNoX
t01EuaKMkVkwsUaOR77sdxXhYnb+sfkJZqHC7/fRTiE5Bx5xqF/8fz3OVW80uiGM
66ffoZDeq+jzZQrSiIU4kQFoSY6RIMct1xuIlFf7spN6SDxj0YI2sOU0CPeNmVZs
NVF2qz/69AOynZobedlGxKL/Xr7hB/H7k+gdEfv9esaJwTxVsjVYCgbnCkzwmbZd
hlHBeIdpWLuyd1wMno3bea+lEDKNxK9MLK+87i21WXTP0FHtZYaUad3Qi7BuR3d5
zrp2z4yw8nfr/xZBP0OLVCcTe3wnhVaio23ajhs6/6VdjyrXSU4gTBLnyVHNQwID
AQABo4IBaTCCAWUwCQYDVR0TBAIwADARBglghkgBhvhCAQEEBAMCBkAwNAYJYIZI
AYb4QgENBCcWJUVhc3ktUlNBIEdlbmVyYXRlZCBTZXJ2ZXIgQ2VydGlmaWNhdGUw
HQYDVR0OBBYEFPTCwH4WNeM6pFEPCSkMEzMGK3YwMIG6BgNVHSMEgbIwga+AFKsm
iA0TGhrqP9HVqK4QK6hn8VEsoYGLpIGIMIGFMQswCQYDVQQGEwJVQTESMBAGA1UE
CBMJR2FseWNoeW5hMQ0wCwYDVQQHEwRMdml2MQ4wDAYDVQQKEwVOdGF4YTERMA8G
A1UEAxMITnRheGEgQ0ExEDAOBgNVBCkTB0Vhc3lSU0ExHjAcBgkqhkiG9w0BCQEW
D250YXhhQG50YXhhLmNvbYIJANKHTMPpAy0JMBMGA1UdJQQMMAoGCCsGAQUFBwMB
MAsGA1UdDwQEAwIFoDARBgNVHREECjAIggZzZXJ2ZXIwDQYJKoZIhvcNAQELBQAD
ggEBAIcXsDNyqiiChUoLeD3sEXCdcglVk4ciZoJ4okDG3B93g7dl0ia+tjaWAaNX
lSUT39pOVM/mo2DjjZbSgK5j6NfX9IiRu8SF9DQ+cxmi3XJB+M+fGD9nfFxgKwsN
3NXGJmzjkEk8ZudqkrXvS82bO7DB/r+UzXY1bHa1yFpVN7tIl0ynjyuALvss0ECe
9BDu6zZqZWbaYg6g/z2dTUjdnCZ2KXCIaoUwzu+gGhArHP8zY/xqGSS+aEmFabrk
t/+q2pk1djiWU+gnV4gnn0eP+Zc7+OvoxE1Q74/o04bDXngU/gBav27Dukztv40j
FJNVemYnD3vmkdBOE0GDQaXYz78=
-----END CERTIFICATE-----
